target datalayout = "e-m:e-p270:32:32-p271:32:32-p272:64:64-i64:64-i128:128-f80:128-n8:16:32:64-S128"
target triple = "x86_64-pc-linux-gnu"

%struct.Matrix = type { float, float, float, float, float, float, float, float, float, float, float, float, float, float, float, float }
%struct.Point = type { i32, i32 }
%struct.Size = type { i32, i32 }
%struct.anon.6 = type { ptr, i32, i8, i8, i8, i8, i8, i8, %struct.Point, %struct.Point, %struct.Size, %struct.Size, %struct.Size, %struct.Size, %struct.Size, %struct.Point, %struct.Size, %struct.Size, %struct.Matrix, ptr, i32 }
%struct.FilePathList = type { i32, i32, ptr }

; Function Attrs: nounwind uwtable
define { i64, ptr } @LoadDroppedFiles() #0 {
  %1 = alloca %struct.FilePathList, align 8
  call void @llvm.memset.p0.i64(ptr align 8 %1, i8 0, i64 16, i1 false)
  %2 = load i32, ptr getelementptr inbounds nuw (%struct.anon.6, ptr @CORE, i32 0, i32 20), align 8
  %3 = getelementptr inbounds nuw %struct.FilePathList, ptr %1, i32 0, i32 1
  store i32 %2, ptr %3, align 4
  %4 = load ptr, ptr getelementptr inbounds nuw (%struct.anon.6, ptr @CORE, i32 0, i32 19), align 8
  %5 = getelementptr inbounds nuw %struct.FilePathList, ptr %1, i32 0, i32 2
  store ptr %4, ptr %5, align 8
  %6 = load { i64, ptr }, ptr %1, align 8
  ret { i64, ptr } %6
}