; Function Attrs: mustprogress nofree norecurse nosync nounwind willreturn memory(read, argmem: none, inaccessiblemem: none) uwtable
define { i64, ptr } @LoadDroppedFiles() local_unnamed_addr #11 {
  %1 = load i32, ptr getelementptr inbounds nuw (i8, ptr @CORE, i64 176), align 8
  %2 = load ptr, ptr getelementptr inbounds nuw (i8, ptr @CORE, i64 168), align 8
  %.sroa.0.sroa.2.0.insert.ext = zext i32 %1 to i64
  %.sroa.0.sroa.2.0.insert.shift = shl nuw i64 %.sroa.0.sroa.2.0.insert.ext, 32
  %.fca.0.insert = insertvalue { i64, ptr } poison, i64 %.sroa.0.sroa.2.0.insert.shift, 0
  %.fca.1.insert = insertvalue { i64, ptr } %.fca.0.insert, ptr %2, 1
  ret { i64, ptr } %.fca.1.insert
}